target datalayout = "e-m:e-p270:32:32-p271:32:32-p272:64:64-i64:64-i128:128-f80:128-n8:16:32:64-S128"
target triple = "x86_64-unknown-linux-gnu"

%struct.ecc_key = type { i32, i32, i32, i32, ptr, ptr, %struct.ecc_point, [1 x %struct.sp_int], ptr }
%struct.ecc_point = type { [1 x %struct.sp_int], [1 x %struct.sp_int], [1 x %struct.sp_int] }
%struct.sp_int = type { i32, i32, [129 x i64] }
%struct.ecc_curve_spec = type { ptr, ptr, ptr, ptr, ptr, ptr, ptr, i32, i32, i8 }

; Function Attrs: nounwind uwtable
define i32 @wc_ecc_make_pub_ex(ptr noundef %key, ptr noundef %pubOut, ptr noundef %rng) #0 {
entry:
  %retval = alloca i32, align 4
  %key.addr = alloca ptr, align 8
  %pubOut.addr = alloca ptr, align 8
  %rng.addr = alloca ptr, align 8
  %err = alloca i32, align 4
  %spec_ints = alloca [800 x i8], align 16
  %curve_lcl = alloca %struct.ecc_curve_spec, align 8
  %curve = alloca ptr, align 8
  store ptr %key, ptr %key.addr, align 8
  store ptr %pubOut, ptr %pubOut.addr, align 8
  store ptr %rng, ptr %rng.addr, align 8
  store i32 0, ptr %err, align 4
  store ptr %curve_lcl, ptr %curve, align 8
  %0 = load ptr, ptr %curve, align 8
  call void @llvm.memset.p0.i64(ptr align 8 %0, i8 0, i64 72, i1 false)
  %arraydecay = getelementptr inbounds [800 x i8], ptr %spec_ints, i64 0, i64 0
  %1 = load ptr, ptr %curve, align 8
  %spec_ints1 = getelementptr inbounds %struct.ecc_curve_spec, ptr %1, i32 0, i32 6
  store ptr %arraydecay, ptr %spec_ints1, align 8
  %2 = load ptr, ptr %curve, align 8
  %spec_count = getelementptr inbounds %struct.ecc_curve_spec, ptr %2, i32 0, i32 7
  store i32 5, ptr %spec_count, align 8
  br label %do.body

do.body:                                          ; preds = %entry
  br label %do.end

do.end:                                           ; preds = %do.body
  %3 = load ptr, ptr %key.addr, align 8
  %cmp = icmp eq ptr %3, null
  br i1 %cmp, label %if.then, label %if.end

if.then:                                          ; preds = %do.end
  store i32 -173, ptr %retval, align 4
  br label %return

if.end:                                           ; preds = %do.end
  br label %do.body2

do.body2:                                         ; preds = %if.end
  br label %do.end3

do.end3:                                          ; preds = %do.body2
  %4 = load i32, ptr %err, align 4
  %cmp4 = icmp eq i32 %4, 0
  br i1 %cmp4, label %if.then5, label %if.end6

if.then5:                                         ; preds = %do.end3
  %5 = load ptr, ptr %key.addr, align 8
  %dp = getelementptr inbounds %struct.ecc_key, ptr %5, i32 0, i32 4
  %6 = load ptr, ptr %dp, align 8
  %call = call i32 @wc_ecc_curve_load(ptr noundef %6, ptr noundef %curve, i8 noundef zeroext 59)
  store i32 %call, ptr %err, align 4
  br label %if.end6

if.end6:                                          ; preds = %if.then5, %do.end3
  %7 = load i32, ptr %err, align 4
  %cmp7 = icmp eq i32 %7, 0
  br i1 %cmp7, label %if.then8, label %if.end10

if.then8:                                         ; preds = %if.end6
  %8 = load ptr, ptr %key.addr, align 8
  %9 = load ptr, ptr %curve, align 8
  %10 = load ptr, ptr %pubOut.addr, align 8
  %11 = load ptr, ptr %rng.addr, align 8
  %call9 = call i32 @ecc_make_pub_ex(ptr noundef %8, ptr noundef %9, ptr noundef %10, ptr noundef %11)
  store i32 %call9, ptr %err, align 4
  br label %if.end10

if.end10:                                         ; preds = %if.then8, %if.end6
  %12 = load ptr, ptr %curve, align 8
  call void @wc_ecc_curve_free(ptr noundef %12)
  br label %do.body11

do.body11:                                        ; preds = %if.end10
  br label %do.end12

do.end12:                                         ; preds = %do.body11
  %13 = load i32, ptr %err, align 4
  store i32 %13, ptr %retval, align 4
  br label %return

return:                                           ; preds = %do.end12, %if.then
  %14 = load i32, ptr %retval, align 4
  ret i32 %14
}