; Function Attrs: nounwind uwtable
define i32 @wc_ecc_make_pub_ex(ptr noundef %key, ptr noundef %pubOut, ptr noundef %rng) local_unnamed_addr #2 {
entry:
  %spec_ints = alloca [800 x i8], align 16
  %curve_lcl = alloca %struct.ecc_curve_spec, align 8
  call void @llvm.memset.p0.i64(ptr noundef nonnull align 8 dereferenceable(72) %curve_lcl, i8 0, i64 72, i1 false)
  %spec_ints1 = getelementptr inbounds nuw i8, ptr %curve_lcl, i64 48
  store ptr %spec_ints, ptr %spec_ints1, align 8
  %spec_count = getelementptr inbounds nuw i8, ptr %curve_lcl, i64 56
  store i32 5, ptr %spec_count, align 8
  %cmp = icmp eq ptr %key, null
  br i1 %cmp, label %return, label %if.then5

if.then5:                                         ; preds = %entry
  %dp = getelementptr inbounds nuw i8, ptr %key, i64 16
  %0 = load ptr, ptr %dp, align 8
  %call = call fastcc i32 @wc_ecc_curve_load(ptr noundef %0, ptr nonnull %curve_lcl, i8 noundef zeroext 59)
  %cmp7 = icmp eq i32 %call, 0
  br i1 %cmp7, label %if.then8, label %if.end10

if.then8:                                         ; preds = %if.then5
  %call9 = call fastcc i32 @ecc_make_pub_ex(ptr noundef nonnull %key, ptr noundef nonnull %curve_lcl, ptr noundef %pubOut, ptr noundef %rng)
  br label %if.end10

if.end10:                                         ; preds = %if.then8, %if.then5
  %err.1 = phi i32 [ %call9, %if.then8 ], [ %call, %if.then5 ]
  call fastcc void @wc_ecc_curve_free(ptr noundef nonnull %curve_lcl)
  br label %return

return:                                           ; preds = %entry, %if.end10
  %retval.0 = phi i32 [ %err.1, %if.end10 ], [ -173, %entry ]
  ret i32 %retval.0
}